target datalayout = "e-m:e-p270:32:32-p271:32:32-p272:64:64-i64:64-i128:128-f80:128-n8:16:32:64-S128"
target triple = "x86_64-pc-linux-gnu"

@ShenandoahVerify = external global i8, align 1
@VerifyAfterGC = external global i8, align 1
@_ZN8Universe14_collectedHeapE = external global ptr, align 8
@.str.17 = private unnamed_addr constant [1 x i8] zeroinitializer, align 1

; Function Attrs: mustprogress nounwind uwtable
define linkonce_odr hidden noundef ptr @_ZN8Universe4heapEv() #1 comdat align 2 {
  %1 = load ptr, ptr @_ZN8Universe14_collectedHeapE, align 8
  ret ptr %1
}

; Function Attrs: mustprogress nounwind uwtable
define linkonce_odr hidden void @_ZN8Universe6verifyEPKc(ptr noundef %0) #1 comdat align 2 {
  %2 = alloca ptr, align 8
  store ptr %0, ptr %2, align 8
  %3 = load ptr, ptr %2, align 8
  call void @_ZN8Universe6verifyE12VerifyOptionPKc(i32 noundef 0, ptr noundef %3)
  ret void
}

; Function Attrs: mustprogress nounwind uwtable
define linkonce_odr hidden noundef ptr @_ZN13CollectedHeap10named_heapI14ShenandoahHeapEEPT_NS_4NameE(i32 noundef %0) #1 comdat align 2 {
  %2 = alloca i32, align 4
  %3 = alloca ptr, align 8
  store i32 %0, ptr %2, align 4
  %4 = call noundef ptr @_ZN8Universe4heapEv()
  store ptr %4, ptr %3, align 8
  %5 = load ptr, ptr %3, align 8
  ret ptr %5
}

; Function Attrs: mustprogress nounwind uwtable
define linkonce_odr hidden void @_ZN8Universe6verifyEv() #1 comdat align 2 {
  call void @_ZN8Universe6verifyEPKc(ptr noundef @.str.17)
  ret void
}

; Function Attrs: mustprogress nounwind uwtable
define linkonce_odr hidden noundef ptr @_ZN14ShenandoahHeap4heapEv() #1 comdat align 2 {
  %1 = call noundef ptr @_ZN13CollectedHeap10named_heapI14ShenandoahHeapEEPT_NS_4NameE(i32 noundef 6)
  ret ptr %1
}

; Function Attrs: mustprogress nounwind uwtable
define hidden void @_ZN17ShenandoahDegenGC15op_update_rootsEv(ptr noundef nonnull align 8 dereferenceable(13) %0) #1 align 2 {
  %2 = alloca ptr, align 8
  %3 = alloca ptr, align 8
  store ptr %0, ptr %2, align 8
  %4 = call noundef ptr @_ZN14ShenandoahHeap4heapEv()
  store ptr %4, ptr %3, align 8
  call void @_ZN12ShenandoahGC12update_rootsEb(i1 noundef zeroext false)
  %5 = load ptr, ptr %3, align 8
  call void @_ZN14ShenandoahHeap25update_heap_region_statesEb(ptr noundef nonnull align 8 dereferenceable(2657) %5, i1 noundef zeroext false)
  %6 = load i8, ptr @ShenandoahVerify, align 1
  %7 = trunc i8 %6 to i1
  br i1 %7, label %8, label %11

8:                                                ; preds = %1
  %9 = load ptr, ptr %3, align 8
  %10 = call noundef ptr @_ZN14ShenandoahHeap8verifierEv(ptr noundef nonnull align 8 dereferenceable(2657) %9)
  call void @_ZN18ShenandoahVerifier23verify_after_updaterefsEv(ptr noundef nonnull align 8 dereferenceable(16) %10)
  br label %11

11:                                               ; preds = %8, %1
  %12 = load i8, ptr @VerifyAfterGC, align 1
  %13 = trunc i8 %12 to i1
  br i1 %13, label %14, label %15

14:                                               ; preds = %11
  call void @_ZN8Universe6verifyEv()
  br label %15

15:                                               ; preds = %14, %11
  %16 = load ptr, ptr %3, align 8
  call void @_ZN14ShenandoahHeap16rebuild_free_setEb(ptr noundef nonnull align 8 dereferenceable(2657) %16, i1 noundef zeroext false)
  ret void
}