; Function Attrs: mustprogress nounwind uwtable
define hidden void @_ZN17ShenandoahDegenGC15op_update_rootsEv(ptr nocapture noundef nonnull readnone align 8 dereferenceable(13) %0) local_unnamed_addr #1 align 2 {
  %2 = load ptr, ptr @_ZN8Universe14_collectedHeapE, align 8
  tail call void @_ZN12ShenandoahGC12update_rootsEb(i1 noundef zeroext false) #8
  tail call void @_ZN14ShenandoahHeap25update_heap_region_statesEb(ptr noundef nonnull align 8 dereferenceable(2657) %2, i1 noundef zeroext false) #8
  %3 = load i8, ptr @ShenandoahVerify, align 1
  %4 = trunc i8 %3 to i1
  br i1 %4, label %5, label %7

5:                                                ; preds = %1
  %6 = tail call noundef ptr @_ZN14ShenandoahHeap8verifierEv(ptr noundef nonnull align 8 dereferenceable(2657) %2) #8
  tail call void @_ZN18ShenandoahVerifier23verify_after_updaterefsEv(ptr noundef nonnull align 8 dereferenceable(16) %6) #8
  br label %7

7:                                                ; preds = %5, %1
  %8 = load i8, ptr @VerifyAfterGC, align 1
  %9 = trunc i8 %8 to i1
  br i1 %9, label %10, label %11

10:                                               ; preds = %7
  tail call void @_ZN8Universe6verifyE12VerifyOptionPKc(i32 noundef 0, ptr noundef nonnull @.str.17) #8
  br label %11

11:                                               ; preds = %10, %7
  tail call void @_ZN14ShenandoahHeap16rebuild_free_setEb(ptr noundef nonnull align 8 dereferenceable(2657) %2, i1 noundef zeroext false) #8
  ret void
}